target datalayout = "e-m:e-p270:32:32-p271:32:32-p272:64:64-i64:64-i128:128-f80:128-n8:16:32:64-S128"
target triple = "x86_64-pc-linux-gnu"

%struct.DdManager = type { %struct.DdNode, ptr, ptr, ptr, ptr, ptr, ptr, ptr, i32, i32, double, double, double, i32, i32, i32, i32, i32, i32, ptr, ptr, %struct.DdSubtable, i32, i32, i32, i32, i32, i32, i32, double, i32, i32, i32, ptr, i64, double, i32, ptr, ptr, ptr, ptr, ptr, ptr, ptr, i32, ptr, ptr, ptr, ptr, ptr, ptr, i32, i32, i32, double, i32, i32, i32, i32, double, double, i32, i32, i32, i32, i32, i32, i32, i32, i32, ptr, ptr, i32, i32, i32, i32, i32, i32, ptr, ptr, ptr, ptr, ptr, ptr, ptr, ptr, i32, i64, i64, i64, i32, i64, i64, double, double, double, double, double, double, i32, ptr, ptr, i64 }
%struct.DdNode = type { i32, i32, ptr, %union.anon, i64 }
%union.anon = type { %struct.DdChildren }
%struct.DdChildren = type { ptr, ptr }
%struct.DdSubtable = type { ptr, i32, i32, i32, i32, i32, i32, i32, i32, i32, i32, i32 }

; Function Attrs: nounwind uwtable
define internal ptr @Abc_NodeBddToMuxes_rec(ptr noundef %0, ptr noundef %1, ptr noundef %2, ptr noundef %3) #0 {
  %5 = alloca ptr, align 8
  %6 = alloca ptr, align 8
  %7 = alloca ptr, align 8
  %8 = alloca ptr, align 8
  %9 = alloca ptr, align 8
  %10 = alloca ptr, align 8
  %11 = alloca ptr, align 8
  %12 = alloca ptr, align 8
  %13 = alloca ptr, align 8
  store ptr %0, ptr %6, align 8
  store ptr %1, ptr %7, align 8
  store ptr %2, ptr %8, align 8
  store ptr %3, ptr %9, align 8
  %14 = load ptr, ptr %7, align 8
  %15 = load ptr, ptr %6, align 8
  %16 = getelementptr inbounds %struct.DdManager, ptr %15, i32 0, i32 1
  %17 = load ptr, ptr %16, align 8
  %18 = icmp eq ptr %14, %17
  br i1 %18, label %19, label %22

19:                                               ; preds = %4
  %20 = load ptr, ptr %8, align 8
  %21 = call ptr @Abc_NtkCreateNodeConst1(ptr noundef %20)
  store ptr %21, ptr %5, align 8
  br label %91

22:                                               ; preds = %4
  %23 = load ptr, ptr %7, align 8
  %24 = load ptr, ptr %6, align 8
  %25 = getelementptr inbounds %struct.DdManager, ptr %24, i32 0, i32 2
  %26 = load ptr, ptr %25, align 8
  %27 = icmp eq ptr %23, %26
  br i1 %27, label %28, label %31

28:                                               ; preds = %22
  %29 = load ptr, ptr %8, align 8
  %30 = call ptr @Abc_NtkCreateNodeConst0(ptr noundef %29)
  store ptr %30, ptr %5, align 8
  br label %91

31:                                               ; preds = %22
  %32 = load ptr, ptr %9, align 8
  %33 = load ptr, ptr %7, align 8
  %34 = call i32 @st__lookup(ptr noundef %32, ptr noundef %33, ptr noundef %10)
  %35 = icmp ne i32 %34, 0
  br i1 %35, label %36, label %38

36:                                               ; preds = %31
  %37 = load ptr, ptr %10, align 8
  store ptr %37, ptr %5, align 8
  br label %91

38:                                               ; preds = %31
  %39 = load ptr, ptr %6, align 8
  %40 = load ptr, ptr %7, align 8
  %41 = getelementptr inbounds %struct.DdNode, ptr %40, i32 0, i32 3
  %42 = getelementptr inbounds %struct.DdChildren, ptr %41, i32 0, i32 1
  %43 = load ptr, ptr %42, align 8
  %44 = ptrtoint ptr %43 to i64
  %45 = and i64 %44, -2
  %46 = inttoptr i64 %45 to ptr
  %47 = load ptr, ptr %8, align 8
  %48 = load ptr, ptr %9, align 8
  %49 = call ptr @Abc_NodeBddToMuxes_rec(ptr noundef %39, ptr noundef %46, ptr noundef %47, ptr noundef %48)
  store ptr %49, ptr %11, align 8
  %50 = load ptr, ptr %7, align 8
  %51 = getelementptr inbounds %struct.DdNode, ptr %50, i32 0, i32 3
  %52 = getelementptr inbounds %struct.DdChildren, ptr %51, i32 0, i32 1
  %53 = load ptr, ptr %52, align 8
  %54 = ptrtoint ptr %53 to i64
  %55 = and i64 %54, 1
  %56 = trunc i64 %55 to i32
  %57 = icmp ne i32 %56, 0
  br i1 %57, label %58, label %62

58:                                               ; preds = %38
  %59 = load ptr, ptr %8, align 8
  %60 = load ptr, ptr %11, align 8
  %61 = call ptr @Abc_NtkCreateNodeInv(ptr noundef %59, ptr noundef %60)
  store ptr %61, ptr %11, align 8
  br label %62

62:                                               ; preds = %58, %38
  %63 = load ptr, ptr %6, align 8
  %64 = load ptr, ptr %7, align 8
  %65 = getelementptr inbounds %struct.DdNode, ptr %64, i32 0, i32 3
  %66 = getelementptr inbounds %struct.DdChildren, ptr %65, i32 0, i32 0
  %67 = load ptr, ptr %66, align 8
  %68 = load ptr, ptr %8, align 8
  %69 = load ptr, ptr %9, align 8
  %70 = call ptr @Abc_NodeBddToMuxes_rec(ptr noundef %63, ptr noundef %67, ptr noundef %68, ptr noundef %69)
  store ptr %70, ptr %12, align 8
  %71 = load ptr, ptr %9, align 8
  %72 = load ptr, ptr %6, align 8
  %73 = load ptr, ptr %7, align 8
  %74 = getelementptr inbounds %struct.DdNode, ptr %73, i32 0, i32 0
  %75 = load i32, ptr %74, align 8
  %76 = call ptr @Cudd_bddIthVar(ptr noundef %72, i32 noundef %75)
  %77 = call i32 @st__lookup(ptr noundef %71, ptr noundef %76, ptr noundef %13)
  %78 = icmp ne i32 %77, 0
  br i1 %78, label %80, label %79

79:                                               ; preds = %62
  br label %80

80:                                               ; preds = %79, %62
  %81 = load ptr, ptr %8, align 8
  %82 = load ptr, ptr %13, align 8
  %83 = load ptr, ptr %12, align 8
  %84 = load ptr, ptr %11, align 8
  %85 = call ptr @Abc_NtkCreateNodeMux(ptr noundef %81, ptr noundef %82, ptr noundef %83, ptr noundef %84)
  store ptr %85, ptr %10, align 8
  %86 = load ptr, ptr %9, align 8
  %87 = load ptr, ptr %7, align 8
  %88 = load ptr, ptr %10, align 8
  %89 = call i32 @st__insert(ptr noundef %86, ptr noundef %87, ptr noundef %88)
  %90 = load ptr, ptr %10, align 8
  store ptr %90, ptr %5, align 8
  br label %91

91:                                               ; preds = %80, %36, %28, %19
  %92 = load ptr, ptr %5, align 8
  ret ptr %92
}