; Function Attrs: nounwind uwtable
define internal fastcc ptr @Abc_NodeBddToMuxes_rec(ptr noundef %0, ptr noundef %1, ptr noundef %2, ptr noundef %3) unnamed_addr #0 {
  %5 = alloca ptr, align 8
  %6 = alloca ptr, align 8
  %7 = getelementptr inbounds nuw i8, ptr %0, i64 40
  %8 = load ptr, ptr %7, align 8
  %9 = icmp eq ptr %1, %8
  br i1 %9, label %10, label %12

10:                                               ; preds = %4
  %11 = tail call ptr @Abc_NtkCreateNodeConst1(ptr noundef %2) #14
  br label %45

12:                                               ; preds = %4
  %13 = getelementptr inbounds nuw i8, ptr %0, i64 48
  %14 = load ptr, ptr %13, align 8
  %15 = icmp eq ptr %1, %14
  br i1 %15, label %16, label %18

16:                                               ; preds = %12
  %17 = tail call ptr @Abc_NtkCreateNodeConst0(ptr noundef %2) #14
  br label %45

18:                                               ; preds = %12
  %19 = call i32 @st__lookup(ptr noundef %3, ptr noundef %1, ptr noundef nonnull %5) #14
  %.not = icmp eq i32 %19, 0
  br i1 %.not, label %22, label %20

20:                                               ; preds = %18
  %21 = load ptr, ptr %5, align 8
  br label %45

22:                                               ; preds = %18
  %23 = getelementptr inbounds nuw i8, ptr %1, i64 16
  %24 = getelementptr inbounds nuw i8, ptr %1, i64 24
  %25 = load ptr, ptr %24, align 8
  %26 = ptrtoint ptr %25 to i64
  %27 = and i64 %26, -2
  %28 = inttoptr i64 %27 to ptr
  %29 = call fastcc ptr @Abc_NodeBddToMuxes_rec(ptr noundef nonnull %0, ptr noundef %28, ptr noundef %2, ptr noundef %3)
  %30 = load ptr, ptr %24, align 8
  %31 = ptrtoint ptr %30 to i64
  %32 = and i64 %31, 1
  %.not30 = icmp eq i64 %32, 0
  br i1 %.not30, label %35, label %33

33:                                               ; preds = %22
  %34 = call ptr @Abc_NtkCreateNodeInv(ptr noundef %2, ptr noundef %29) #14
  br label %35

35:                                               ; preds = %33, %22
  %.028 = phi ptr [ %34, %33 ], [ %29, %22 ]
  %36 = load ptr, ptr %23, align 8
  %37 = call fastcc ptr @Abc_NodeBddToMuxes_rec(ptr noundef nonnull %0, ptr noundef %36, ptr noundef %2, ptr noundef %3)
  %38 = load i32, ptr %1, align 8
  %39 = call ptr @Cudd_bddIthVar(ptr noundef nonnull %0, i32 noundef %38) #14
  %40 = call i32 @st__lookup(ptr noundef %3, ptr noundef %39, ptr noundef nonnull %6) #14
  %41 = load ptr, ptr %6, align 8
  %42 = call ptr @Abc_NtkCreateNodeMux(ptr noundef %2, ptr noundef %41, ptr noundef %37, ptr noundef %.028) #14
  store ptr %42, ptr %5, align 8
  %43 = call i32 @st__insert(ptr noundef %3, ptr noundef nonnull %1, ptr noundef %42) #14
  %44 = load ptr, ptr %5, align 8
  br label %45

45:                                               ; preds = %35, %20, %16, %10
  %.0 = phi ptr [ %11, %10 ], [ %17, %16 ], [ %21, %20 ], [ %44, %35 ]
  ret ptr %.0
}